; Function Attrs: mustprogress uwtable
define void @_ZNK8proxygen15HTTPTransaction8describeERSo(ptr nocapture noundef nonnull readonly align 8 dereferenceable(912) %this, ptr noundef nonnull align 8 dereferenceable(8) %os) local_unnamed_addr #3 align 2 {
entry:
  %transport_ = getelementptr inbounds i8, ptr %this, i64 272
  %0 = load ptr, ptr %transport_, align 8
  %vtable = load ptr, ptr %0, align 8
  %vfn = getelementptr inbounds i8, ptr %vtable, i64 184
  %1 = load ptr, ptr %vfn, align 8
  tail call void %1(ptr noundef nonnull align 8 dereferenceable(8) %0, ptr noundef nonnull align 8 dereferenceable(8) %os)
  %call = tail call noundef nonnull align 8 dereferenceable(8) ptr @_ZStlsISt11char_traitsIcEERSt13basic_ostreamIcT_ES5_PKc(ptr noundef nonnull align 8 dereferenceable(8) %os, ptr noundef nonnull @.str.25)
  %id_ = getelementptr inbounds i8, ptr %this, i64 248
  %2 = load i64, ptr %id_, align 8
  %call2 = tail call noundef nonnull align 8 dereferenceable(8) ptr @_ZNSolsEm(ptr noundef nonnull align 8 dereferenceable(8) %call, i64 noundef %2)
  ret void
}